; Function Attrs: mustprogress uwtable
define hidden noundef zeroext i1 @_ZNK3sat10simplifier17elim_vars_enabledEv(ptr nocapture noundef nonnull readonly align 8 dereferenceable(288) %this) local_unnamed_addr #3 align 2 {
entry:
  %m_incremental_mode = getelementptr inbounds i8, ptr %this, i64 136
  %0 = load i8, ptr %m_incremental_mode, align 8
  %1 = and i8 %0, 1
  %tobool.not = icmp eq i8 %1, 0
  br i1 %tobool.not, label %land.lhs.true, label %land.end

land.lhs.true:                                    ; preds = %entry
  %2 = load ptr, ptr %this, align 8
  %call = tail call noundef zeroext i1 @_ZNK3sat6solver20tracking_assumptionsEv(ptr noundef nonnull align 8 dereferenceable(4408) %2)
  br i1 %call, label %land.end, label %land.lhs.true2

land.lhs.true2:                                   ; preds = %land.lhs.true
  %m_elim_vars = getelementptr inbounds i8, ptr %this, i64 188
  %3 = load i8, ptr %m_elim_vars, align 4
  %4 = and i8 %3, 1
  %tobool3.not = icmp eq i8 %4, 0
  br i1 %tobool3.not, label %land.end, label %land.rhs

land.rhs:                                         ; preds = %land.lhs.true2
  %5 = load ptr, ptr %this, align 8
  %m_num_threads.i = getelementptr inbounds i8, ptr %5, i64 168
  %6 = load i32, ptr %m_num_threads.i, align 8
  %cmp.i = icmp eq i32 %6, 1
  br label %land.end

land.end:                                         ; preds = %land.rhs, %land.lhs.true2, %land.lhs.true, %entry
  %7 = phi i1 [ false, %land.lhs.true2 ], [ false, %land.lhs.true ], [ false, %entry ], [ %cmp.i, %land.rhs ]
  ret i1 %7
}